target datalayout = "e-m:e-p270:32:32-p271:32:32-p272:64:64-i64:64-i128:128-f80:128-n8:16:32:64-S128"
target triple = "x86_64-pc-linux-gnu"

%struct.crypto_ex_data_st = type { ptr, ptr }

; Function Attrs: inlinehint nounwind uwtable
define internal ptr @ossl_check_const_void_sk_type(ptr noundef %0) #3 {
  %2 = alloca ptr, align 8
  store ptr %0, ptr %2, align 8, !tbaa !46
  %3 = load ptr, ptr %2, align 8, !tbaa !46
  ret ptr %3
}

; Function Attrs: nounwind uwtable
define ptr @CRYPTO_get_ex_data(ptr noundef %0, i32 noundef %1) #0 {
  %3 = alloca ptr, align 8
  %4 = alloca ptr, align 8
  %5 = alloca i32, align 4
  store ptr %0, ptr %4, align 8, !tbaa !30
  store i32 %1, ptr %5, align 4, !tbaa !12
  %6 = load ptr, ptr %4, align 8, !tbaa !30
  %7 = getelementptr inbounds nuw %struct.crypto_ex_data_st, ptr %6, i32 0, i32 1
  %8 = load ptr, ptr %7, align 8, !tbaa !41
  %9 = icmp eq ptr %8, null
  br i1 %9, label %18, label %10

10:                                               ; preds = %2
  %11 = load i32, ptr %5, align 4, !tbaa !12
  %12 = load ptr, ptr %4, align 8, !tbaa !30
  %13 = getelementptr inbounds nuw %struct.crypto_ex_data_st, ptr %12, i32 0, i32 1
  %14 = load ptr, ptr %13, align 8, !tbaa !41
  %15 = call ptr @ossl_check_const_void_sk_type(ptr noundef %14)
  %16 = call i32 @OPENSSL_sk_num(ptr noundef %15)
  %17 = icmp sge i32 %11, %16
  br i1 %17, label %18, label %19

18:                                               ; preds = %10, %2
  store ptr null, ptr %3, align 8
  br label %26

19:                                               ; preds = %10
  %20 = load ptr, ptr %4, align 8, !tbaa !30
  %21 = getelementptr inbounds nuw %struct.crypto_ex_data_st, ptr %20, i32 0, i32 1
  %22 = load ptr, ptr %21, align 8, !tbaa !41
  %23 = call ptr @ossl_check_const_void_sk_type(ptr noundef %22)
  %24 = load i32, ptr %5, align 4, !tbaa !12
  %25 = call ptr @OPENSSL_sk_value(ptr noundef %23, i32 noundef %24)
  store ptr %25, ptr %3, align 8
  br label %26

26:                                               ; preds = %19, %18
  %27 = load ptr, ptr %3, align 8
  ret ptr %27
}

; Function Attrs: nounwind uwtable
define i32 @CRYPTO_alloc_ex_data(i32 noundef %0, ptr noundef %1, ptr noundef %2, i32 noundef %3) #0 {
  %5 = alloca i32, align 4
  %6 = alloca i32, align 4
  %7 = alloca ptr, align 8
  %8 = alloca ptr, align 8
  %9 = alloca i32, align 4
  %10 = alloca ptr, align 8
  %11 = alloca i32, align 4
  store i32 %0, ptr %6, align 4, !tbaa !12
  store ptr %1, ptr %7, align 8, !tbaa !22
  store ptr %2, ptr %8, align 8, !tbaa !30
  store i32 %3, ptr %9, align 4, !tbaa !12
  call void @llvm.lifetime.start.p0(i64 8, ptr %10) #4
  %12 = load ptr, ptr %8, align 8, !tbaa !30
  %13 = load i32, ptr %9, align 4, !tbaa !12
  %14 = call ptr @CRYPTO_get_ex_data(ptr noundef %12, i32 noundef %13)
  store ptr %14, ptr %10, align 8, !tbaa !22
  %15 = load ptr, ptr %10, align 8, !tbaa !22
  %16 = icmp ne ptr %15, null
  br i1 %16, label %17, label %18

17:                                               ; preds = %4
  store i32 1, ptr %5, align 4
  store i32 1, ptr %11, align 4
  br label %24

18:                                               ; preds = %4
  %19 = load i32, ptr %6, align 4, !tbaa !12
  %20 = load ptr, ptr %7, align 8, !tbaa !22
  %21 = load ptr, ptr %8, align 8, !tbaa !30
  %22 = load i32, ptr %9, align 4, !tbaa !12
  %23 = call i32 @ossl_crypto_alloc_ex_data_intern(i32 noundef %19, ptr noundef %20, ptr noundef %21, i32 noundef %22)
  store i32 %23, ptr %5, align 4
  store i32 1, ptr %11, align 4
  br label %24

24:                                               ; preds = %18, %17
  call void @llvm.lifetime.end.p0(i64 8, ptr %10) #4
  %25 = load i32, ptr %5, align 4
  ret i32 %25
}