; Function Attrs: nounwind uwtable
define range(i32 0, 2) i32 @CRYPTO_alloc_ex_data(i32 noundef %0, ptr noundef %1, ptr noundef %2, i32 noundef %3) local_unnamed_addr #0 {
  %5 = getelementptr inbounds nuw i8, ptr %2, i64 8
  %6 = load ptr, ptr %5, align 8, !tbaa !26
  %7 = icmp eq ptr %6, null
  br i1 %7, label %CRYPTO_get_ex_data.exit.thread, label %8

8:                                                ; preds = %4
  %9 = tail call i32 @OPENSSL_sk_num(ptr noundef nonnull %6) #9
  %.not.i = icmp slt i32 %3, %9
  br i1 %.not.i, label %CRYPTO_get_ex_data.exit, label %CRYPTO_get_ex_data.exit.thread

CRYPTO_get_ex_data.exit:                          ; preds = %8
  %10 = load ptr, ptr %5, align 8, !tbaa !26
  %11 = tail call ptr @OPENSSL_sk_value(ptr noundef %10, i32 noundef %3) #9
  %.not = icmp eq ptr %11, null
  br i1 %.not, label %CRYPTO_get_ex_data.exit.thread, label %13

CRYPTO_get_ex_data.exit.thread:                   ; preds = %4, %8, %CRYPTO_get_ex_data.exit
  %12 = tail call i32 @ossl_crypto_alloc_ex_data_intern(i32 noundef %0, ptr noundef %1, ptr noundef nonnull %2, i32 noundef %3)
  br label %13

13:                                               ; preds = %CRYPTO_get_ex_data.exit, %CRYPTO_get_ex_data.exit.thread
  %.0 = phi i32 [ %12, %CRYPTO_get_ex_data.exit.thread ], [ 1, %CRYPTO_get_ex_data.exit ]
  ret i32 %.0
}